; Function Attrs: cold nounwind optsize uwtable
define internal void @uninit(ptr noundef readonly captures(none) %0) #0 {
  %2 = getelementptr inbounds nuw i8, ptr %0, i64 72
  %3 = load ptr, ptr %2, align 8, !tbaa !4
  %4 = getelementptr inbounds nuw i8, ptr %3, i64 16
  %5 = load ptr, ptr %4, align 8, !tbaa !25
  tail call void @av_expr_free(ptr noundef %5) #11
  store ptr null, ptr %4, align 8, !tbaa !25
  %6 = getelementptr inbounds nuw i8, ptr %3, i64 416
  %7 = load i32, ptr %6, align 8, !tbaa !20
  %.not = icmp eq i32 %7, 0
  br i1 %.not, label %10, label %8

8:                                                ; preds = %1
  %9 = getelementptr inbounds nuw i8, ptr %3, i64 440
  tail call void @av_frame_free(ptr noundef nonnull %9) #11
  br label %10

10:                                               ; preds = %8, %1
  ret void
}